; Function Attrs: mustprogress uwtable
define void @_ZN7rocksdb22PessimisticTransaction18UnlockGetForUpdateEPNS_18ColumnFamilyHandleERKNS_5SliceE(ptr noundef nonnull align 8 dereferenceable(561) %this, ptr noundef %column_family, ptr noundef nonnull align 8 dereferenceable(16) %key) unnamed_addr #3 align 2 personality ptr @__gxx_personality_v0 {
entry:
  %ref.tmp = alloca %"class.std::__cxx11::basic_string", align 8
  %txn_db_impl_ = getelementptr inbounds i8, ptr %this, i64 328
  %0 = load ptr, ptr %txn_db_impl_, align 8
  %call = tail call noundef i32 @_ZN7rocksdb17GetColumnFamilyIDEPNS_18ColumnFamilyHandleE(ptr noundef %column_family)
  call void @_ZNK7rocksdb5Slice8ToStringB5cxx11Eb(ptr nonnull sret(%"class.std::__cxx11::basic_string") align 8 %ref.tmp, ptr noundef nonnull align 8 dereferenceable(16) %key, i1 noundef zeroext false)
  invoke void @_ZN7rocksdb24PessimisticTransactionDB6UnLockEPNS_22PessimisticTransactionEjRKNSt7__cxx1112basic_stringIcSt11char_traitsIcESaIcEEE(ptr noundef nonnull align 8 dereferenceable(480) %0, ptr noundef nonnull %this, i32 noundef %call, ptr noundef nonnull align 8 dereferenceable(32) %ref.tmp)
          to label %invoke.cont unwind label %lpad

invoke.cont:                                      ; preds = %entry
  call void @_ZNSt7__cxx1112basic_stringIcSt11char_traitsIcESaIcEED1Ev(ptr noundef nonnull align 8 dereferenceable(32) %ref.tmp) #22
  ret void

lpad:                                             ; preds = %entry
  %1 = landingpad { ptr, i32 }
          cleanup
  call void @_ZNSt7__cxx1112basic_stringIcSt11char_traitsIcESaIcEED1Ev(ptr noundef nonnull align 8 dereferenceable(32) %ref.tmp) #22
  resume { ptr, i32 } %1
}